target datalayout = "e-m:e-p270:32:32-p271:32:32-p272:64:64-i64:64-i128:128-f80:128-n8:16:32:64-S128"
target triple = "x86_64-pc-linux-gnu"

%struct.color_t = type { i16, i16, i16 }

; Function Attrs: mustprogress uwtable
define void @_ZN25FontColorPreferencesFrame12colorChangedEP10preferenceRK6QColor(ptr noundef nonnull align 8 dereferenceable(208) %0, ptr noundef %1, ptr noundef nonnull align 4 dereferenceable(14) %2) #0 align 2 {
  %4 = alloca ptr, align 8
  %5 = alloca ptr, align 8
  %6 = alloca ptr, align 8
  %7 = alloca %struct.color_t, align 2
  %8 = alloca %struct.color_t, align 2
  %9 = alloca i48, align 8
  store ptr %0, ptr %4, align 8
  store ptr %1, ptr %5, align 8
  store ptr %2, ptr %6, align 8
  %10 = load ptr, ptr %4, align 8
  %11 = load ptr, ptr %6, align 8
  %12 = call noundef i32 @_ZNK6QColor3redEv(ptr noundef nonnull align 4 dereferenceable(14) %11) #16
  %13 = shl i32 %12, 8
  %14 = load ptr, ptr %6, align 8
  %15 = call noundef i32 @_ZNK6QColor3redEv(ptr noundef nonnull align 4 dereferenceable(14) %14) #16
  %16 = or i32 %13, %15
  %17 = trunc i32 %16 to i16
  %18 = getelementptr inbounds %struct.color_t, ptr %7, i32 0, i32 0
  store i16 %17, ptr %18, align 2
  %19 = load ptr, ptr %6, align 8
  %20 = call noundef i32 @_ZNK6QColor5greenEv(ptr noundef nonnull align 4 dereferenceable(14) %19) #16
  %21 = shl i32 %20, 8
  %22 = load ptr, ptr %6, align 8
  %23 = call noundef i32 @_ZNK6QColor5greenEv(ptr noundef nonnull align 4 dereferenceable(14) %22) #16
  %24 = or i32 %21, %23
  %25 = trunc i32 %24 to i16
  %26 = getelementptr inbounds %struct.color_t, ptr %7, i32 0, i32 1
  store i16 %25, ptr %26, align 2
  %27 = load ptr, ptr %6, align 8
  %28 = call noundef i32 @_ZNK6QColor4blueEv(ptr noundef nonnull align 4 dereferenceable(14) %27) #16
  %29 = shl i32 %28, 8
  %30 = load ptr, ptr %6, align 8
  %31 = call noundef i32 @_ZNK6QColor4blueEv(ptr noundef nonnull align 4 dereferenceable(14) %30) #16
  %32 = or i32 %29, %31
  %33 = trunc i32 %32 to i16
  %34 = getelementptr inbounds %struct.color_t, ptr %7, i32 0, i32 2
  store i16 %33, ptr %34, align 2
  %35 = load ptr, ptr %5, align 8
  call void @llvm.memcpy.p0.p0.i64(ptr align 2 %8, ptr align 2 %7, i64 6, i1 false)
  call void @llvm.memcpy.p0.p0.i64(ptr align 8 %9, ptr align 2 %8, i64 6, i1 false)
  %36 = load i48, ptr %9, align 8
  %37 = call i32 @prefs_set_color_value(ptr noundef %35, i48 %36, i32 noundef 1)
  call void @_ZN25FontColorPreferencesFrame13updateWidgetsEv(ptr noundef nonnull align 8 dereferenceable(208) %10)
  ret void
}