; Function Attrs: mustprogress uwtable
define void @_ZN25FontColorPreferencesFrame12colorChangedEP10preferenceRK6QColor(ptr noundef nonnull align 8 dereferenceable(208) %0, ptr noundef %1, ptr noundef nonnull align 4 dereferenceable(14) %2) #0 align 2 {
  %4 = tail call noundef i32 @_ZNK6QColor3redEv(ptr noundef nonnull align 4 dereferenceable(14) %2) #16
  %5 = shl i32 %4, 8
  %6 = tail call noundef i32 @_ZNK6QColor3redEv(ptr noundef nonnull align 4 dereferenceable(14) %2) #16
  %7 = or i32 %5, %6
  %8 = tail call noundef i32 @_ZNK6QColor5greenEv(ptr noundef nonnull align 4 dereferenceable(14) %2) #16
  %9 = tail call noundef i32 @_ZNK6QColor5greenEv(ptr noundef nonnull align 4 dereferenceable(14) %2) #16
  %10 = tail call noundef i32 @_ZNK6QColor4blueEv(ptr noundef nonnull align 4 dereferenceable(14) %2) #16
  %11 = shl i32 %10, 8
  %12 = tail call noundef i32 @_ZNK6QColor4blueEv(ptr noundef nonnull align 4 dereferenceable(14) %2) #16
  %13 = or i32 %11, %12
  %.mask = and i32 %13, 65535
  %.sroa.3.0.insert.ext = zext nneg i32 %.mask to i48
  %.sroa.3.0.insert.shift = shl nuw i48 %.sroa.3.0.insert.ext, 32
  %14 = shl i32 %8, 24
  %15 = shl i32 %9, 16
  %16 = or i32 %15, %14
  %.sroa.2.0.insert.shift = zext i32 %16 to i48
  %.sroa.2.0.insert.insert = or disjoint i48 %.sroa.3.0.insert.shift, %.sroa.2.0.insert.shift
  %.mask10 = and i32 %7, 65535
  %.sroa.01.0.insert.ext = zext nneg i32 %.mask10 to i48
  %.sroa.01.0.insert.insert = or disjoint i48 %.sroa.2.0.insert.insert, %.sroa.01.0.insert.ext
  %17 = tail call i32 @prefs_set_color_value(ptr noundef %1, i48 %.sroa.01.0.insert.insert, i32 noundef 1)
  tail call void @_ZN25FontColorPreferencesFrame13updateWidgetsEv(ptr noundef nonnull align 8 dereferenceable(208) %0)
  ret void
}